; Function Attrs: alwaysinline norecurse nounwind ssp uwtable
define internal void @"_ZN6open3d4core15ParallelForCPU_IZZZNS0_6kernel9ArangeCPUERKNS0_6TensorES5_S5_RS3_ENK3$_0clEvENKUlvE_clEvEUllE_EEvRKNS0_6DeviceElRKT_.omp_outlined"(ptr noalias noundef readonly captures(none) %0, ptr noalias readnone captures(none) %1, ptr noundef nonnull readonly align 8 captures(none) dereferenceable(8) %2, ptr noundef nonnull readonly align 8 captures(none) dereferenceable(24) %3) #24 personality ptr @__gxx_personality_v0 {
  %5 = alloca i64, align 8
  %6 = alloca i64, align 8
  %7 = alloca i64, align 8
  %8 = alloca i32, align 4
  %9 = load i64, ptr %2, align 8, !tbaa !9
  %10 = icmp sgt i64 %9, 0
  br i1 %10, label %11, label %30

11:                                               ; preds = %4
  %12 = add nsw i64 %9, -1
  call void @llvm.lifetime.start.p0(i64 8, ptr nonnull %5) #25
  store i64 0, ptr %5, align 8, !tbaa !9
  call void @llvm.lifetime.start.p0(i64 8, ptr nonnull %6) #25
  store i64 %12, ptr %6, align 8, !tbaa !9
  call void @llvm.lifetime.start.p0(i64 8, ptr nonnull %7) #25
  store i64 1, ptr %7, align 8, !tbaa !9
  call void @llvm.lifetime.start.p0(i64 4, ptr nonnull %8) #25
  store i32 0, ptr %8, align 4, !tbaa !188
  %13 = load i32, ptr %0, align 4, !tbaa !188
  call void @__kmpc_for_static_init_8(ptr nonnull @1, i32 %13, i32 34, ptr nonnull %8, ptr nonnull %5, ptr nonnull %6, ptr nonnull %7, i64 1, i64 1)
  %14 = load i64, ptr %6, align 8, !tbaa !9
  %15 = call i64 @llvm.smin.i64(i64 %14, i64 %12)
  store i64 %15, ptr %6, align 8, !tbaa !9
  %16 = load i64, ptr %5, align 8, !tbaa !9
  %.not13 = icmp sgt i64 %16, %15
  br i1 %.not13, label %._crit_edge, label %.lr.ph

.lr.ph:                                           ; preds = %11
  %17 = getelementptr inbounds nuw i8, ptr %3, i64 8
  %18 = load ptr, ptr %17, align 8, !tbaa !672
  %19 = getelementptr inbounds nuw i8, ptr %3, i64 16
  %20 = load ptr, ptr %19, align 8, !tbaa !674
  %21 = load ptr, ptr %3, align 8, !tbaa !675
  %22 = load ptr, ptr %21, align 8, !tbaa !32
  br label %23

23:                                               ; preds = %.lr.ph, %23
  %.014 = phi i64 [ %16, %.lr.ph ], [ %29, %23 ]
  %24 = load float, ptr %18, align 4, !tbaa !676
  %25 = load float, ptr %20, align 4, !tbaa !676
  %26 = sitofp i64 %.014 to float
  %27 = call float @llvm.fmuladd.f32(float %25, float %26, float %24)
  %28 = getelementptr inbounds float, ptr %22, i64 %.014
  store float %27, ptr %28, align 4, !tbaa !676
  %29 = add i64 %.014, 1
  %exitcond.not = icmp eq i64 %.014, %15
  br i1 %exitcond.not, label %._crit_edge, label %23

._crit_edge:                                      ; preds = %23, %11
  call void @__kmpc_for_static_fini(ptr nonnull @1, i32 %13)
  call void @llvm.lifetime.end.p0(i64 4, ptr nonnull %8) #25
  call void @llvm.lifetime.end.p0(i64 8, ptr nonnull %7) #25
  call void @llvm.lifetime.end.p0(i64 8, ptr nonnull %6) #25
  call void @llvm.lifetime.end.p0(i64 8, ptr nonnull %5) #25
  br label %30

30:                                               ; preds = %._crit_edge, %4
  ret void
}